target datalayout = "e-m:e-p270:32:32-p271:32:32-p272:64:64-i64:64-i128:128-f80:128-n8:16:32:64-S128"
target triple = "x86_64-pc-linux-gnu"

@libctx = internal global ptr null, align 8
@.str.14 = private unnamed_addr constant [29 x i8] c"../openssl/test/sslapitest.c\00", align 1
@cert = internal global ptr null, align 8
@privkey = internal global ptr null, align 8
@.str.157 = private unnamed_addr constant [67 x i8] c"create_ssl_objects(sctx, cctx, &serverssl, &clientssl, NULL, NULL)\00", align 1
@.str.158 = private unnamed_addr constant [60 x i8] c"create_ssl_connection(serverssl, clientssl, SSL_ERROR_NONE)\00", align 1
@.str.223 = private unnamed_addr constant [2 x i8] c"1\00", align 1
@.str.709 = private unnamed_addr constant [28 x i8] c"SSL_do_handshake(clientssl)\00", align 1
@serverinfo_custom_v1 = internal constant [7 x i8] c"\00\12\00\03\04\05\06", align 1
@serverinfo_custom_v2 = internal constant [11 x i8] c"\00\00\01\D0\00\12\00\03\04\05\06", align 1
@serverinfo_custom_tls13 = internal constant [11 x i8] c"\00\00\11\80\00\12\00\03\04\05\06", align 1
@.str.1243 = private unnamed_addr constant [121 x i8] c"create_ssl_ctx_pair(libctx, TLS_method(), TLS_method(), protocol_version, protocol_version, &sctx, &cctx, cert, privkey)\00", align 1
@.str.1244 = private unnamed_addr constant [64 x i8] c"SSL_CTX_use_serverinfo_ex(sctx, serverinfo_version, si, si_len)\00", align 1
@.str.1245 = private unnamed_addr constant [41 x i8] c"SSL_CTX_use_serverinfo(sctx, si, si_len)\00", align 1
@.str.1246 = private unnamed_addr constant [148 x i8] c"SSL_CTX_add_custom_ext(cctx, TLSEXT_TYPE_signed_certificate_timestamp, extension_context, NULL, NULL, NULL, serverinfo_custom_parse_cb, &cb_result)\00", align 1
@.str.1247 = private unnamed_addr constant [10 x i8] c"cb_result\00", align 1

; Function Attrs: nounwind uwtable
define internal i32 @test_serverinfo_custom(i32 noundef %0) #0 {
  %2 = alloca i32, align 4
  %3 = alloca ptr, align 8
  %4 = alloca ptr, align 8
  %5 = alloca ptr, align 8
  %6 = alloca ptr, align 8
  %7 = alloca i32, align 4
  %8 = alloca i32, align 4
  %9 = alloca i32, align 4
  %10 = alloca i32, align 4
  %11 = alloca i32, align 4
  %12 = alloca ptr, align 8
  %13 = alloca i64, align 8
  %14 = alloca i32, align 4
  store i32 %0, ptr %2, align 4, !tbaa !13
  call void @llvm.lifetime.start.p0(i64 8, ptr %3) #9
  store ptr null, ptr %3, align 8, !tbaa !19
  call void @llvm.lifetime.start.p0(i64 8, ptr %4) #9
  store ptr null, ptr %4, align 8, !tbaa !19
  call void @llvm.lifetime.start.p0(i64 8, ptr %5) #9
  store ptr null, ptr %5, align 8, !tbaa !21
  call void @llvm.lifetime.start.p0(i64 8, ptr %6) #9
  store ptr null, ptr %6, align 8, !tbaa !21
  call void @llvm.lifetime.start.p0(i64 4, ptr %7) #9
  store i32 0, ptr %7, align 4, !tbaa !13
  call void @llvm.lifetime.start.p0(i64 4, ptr %8) #9
  store i32 0, ptr %8, align 4, !tbaa !13
  call void @llvm.lifetime.start.p0(i64 4, ptr %9) #9
  store i32 0, ptr %9, align 4, !tbaa !13
  call void @llvm.lifetime.start.p0(i64 4, ptr %10) #9
  store i32 0, ptr %10, align 4, !tbaa !13
  call void @llvm.lifetime.start.p0(i64 4, ptr %11) #9
  store i32 0, ptr %11, align 4, !tbaa !13
  call void @llvm.lifetime.start.p0(i64 8, ptr %12) #9
  store ptr null, ptr %12, align 8, !tbaa !11
  call void @llvm.lifetime.start.p0(i64 8, ptr %13) #9
  store i64 0, ptr %13, align 8, !tbaa !17
  call void @llvm.lifetime.start.p0(i64 4, ptr %14) #9
  %15 = load i32, ptr %2, align 4, !tbaa !13
  %16 = icmp sgt i32 %15, 0
  %17 = zext i1 %16 to i32
  store i32 %17, ptr %14, align 4, !tbaa !13
  %18 = load i32, ptr %2, align 4, !tbaa !13
  switch i32 %18, label %22 [
    i32 0, label %19
    i32 1, label %19
    i32 2, label %20
    i32 3, label %21
  ]

19:                                               ; preds = %1, %1
  store i32 1, ptr %9, align 4, !tbaa !13
  store i32 771, ptr %10, align 4, !tbaa !13
  store i32 464, ptr %11, align 4, !tbaa !13
  store ptr @serverinfo_custom_v1, ptr %12, align 8, !tbaa !11
  store i64 7, ptr %13, align 8, !tbaa !17
  br label %22

20:                                               ; preds = %1
  store i32 2, ptr %9, align 4, !tbaa !13
  store i32 771, ptr %10, align 4, !tbaa !13
  store i32 464, ptr %11, align 4, !tbaa !13
  store ptr @serverinfo_custom_v2, ptr %12, align 8, !tbaa !11
  store i64 11, ptr %13, align 8, !tbaa !17
  br label %22

21:                                               ; preds = %1
  store i32 2, ptr %9, align 4, !tbaa !13
  store i32 772, ptr %10, align 4, !tbaa !13
  store i32 4480, ptr %11, align 4, !tbaa !13
  store ptr @serverinfo_custom_tls13, ptr %12, align 8, !tbaa !11
  store i64 11, ptr %13, align 8, !tbaa !17
  br label %22

22:                                               ; preds = %1, %21, %20, %19
  %23 = load ptr, ptr @libctx, align 8, !tbaa !4
  %24 = call ptr @TLS_method()
  %25 = call ptr @TLS_method()
  %26 = load i32, ptr %10, align 4, !tbaa !13
  %27 = load i32, ptr %10, align 4, !tbaa !13
  %28 = load ptr, ptr @cert, align 8, !tbaa !11
  %29 = load ptr, ptr @privkey, align 8, !tbaa !11
  %30 = call i32 @create_ssl_ctx_pair(ptr noundef %23, ptr noundef %24, ptr noundef %25, i32 noundef %26, i32 noundef %27, ptr noundef %3, ptr noundef %4, ptr noundef %28, ptr noundef %29)
  %31 = icmp ne i32 %30, 0
  %32 = zext i1 %31 to i32
  %33 = call i32 @test_true(ptr noundef @.str.14, i32 noundef 6509, ptr noundef @.str.1243, i32 noundef %32)
  %34 = icmp ne i32 %33, 0
  br i1 %34, label %36, label %35

35:                                               ; preds = %22
  br label %100

36:                                               ; preds = %22
  %37 = load i32, ptr %14, align 4, !tbaa !13
  %38 = icmp ne i32 %37, 0
  br i1 %38, label %39, label %51

39:                                               ; preds = %36
  %40 = load ptr, ptr %3, align 8, !tbaa !19
  %41 = load i32, ptr %9, align 4, !tbaa !13
  %42 = load ptr, ptr %12, align 8, !tbaa !11
  %43 = load i64, ptr %13, align 8, !tbaa !17
  %44 = call i32 @SSL_CTX_use_serverinfo_ex(ptr noundef %40, i32 noundef %41, ptr noundef %42, i64 noundef %43)
  %45 = icmp ne i32 %44, 0
  %46 = zext i1 %45 to i32
  %47 = call i32 @test_true(ptr noundef @.str.14, i32 noundef 6514, ptr noundef @.str.1244, i32 noundef %46)
  %48 = icmp ne i32 %47, 0
  br i1 %48, label %50, label %49

49:                                               ; preds = %39
  br label %100

50:                                               ; preds = %39
  br label %62

51:                                               ; preds = %36
  %52 = load ptr, ptr %3, align 8, !tbaa !19
  %53 = load ptr, ptr %12, align 8, !tbaa !11
  %54 = load i64, ptr %13, align 8, !tbaa !17
  %55 = call i32 @SSL_CTX_use_serverinfo(ptr noundef %52, ptr noundef %53, i64 noundef %54)
  %56 = icmp ne i32 %55, 0
  %57 = zext i1 %56 to i32
  %58 = call i32 @test_true(ptr noundef @.str.14, i32 noundef 6517, ptr noundef @.str.1245, i32 noundef %57)
  %59 = icmp ne i32 %58, 0
  br i1 %59, label %61, label %60

60:                                               ; preds = %51
  br label %100

61:                                               ; preds = %51
  br label %62

62:                                               ; preds = %61, %50
  %63 = load ptr, ptr %4, align 8, !tbaa !19
  %64 = load i32, ptr %11, align 4, !tbaa !13
  %65 = call i32 @SSL_CTX_add_custom_ext(ptr noundef %63, i32 noundef 18, i32 noundef %64, ptr noundef null, ptr noundef null, ptr noundef null, ptr noundef @serverinfo_custom_parse_cb, ptr noundef %8)
  %66 = icmp ne i32 %65, 0
  %67 = zext i1 %66 to i32
  %68 = call i32 @test_true(ptr noundef @.str.14, i32 noundef 6525, ptr noundef @.str.1246, i32 noundef %67)
  %69 = icmp ne i32 %68, 0
  br i1 %69, label %70, label %91

70:                                               ; preds = %62
  %71 = load ptr, ptr %3, align 8, !tbaa !19
  %72 = load ptr, ptr %4, align 8, !tbaa !19
  %73 = call i32 @create_ssl_objects(ptr noundef %71, ptr noundef %72, ptr noundef %6, ptr noundef %5, ptr noundef null, ptr noundef null)
  %74 = icmp ne i32 %73, 0
  %75 = zext i1 %74 to i32
  %76 = call i32 @test_true(ptr noundef @.str.14, i32 noundef 6527, ptr noundef @.str.157, i32 noundef %75)
  %77 = icmp ne i32 %76, 0
  br i1 %77, label %78, label %91

78:                                               ; preds = %70
  %79 = load ptr, ptr %6, align 8, !tbaa !21
  %80 = load ptr, ptr %5, align 8, !tbaa !21
  %81 = call i32 @create_ssl_connection(ptr noundef %79, ptr noundef %80, i32 noundef 0)
  %82 = icmp ne i32 %81, 0
  %83 = zext i1 %82 to i32
  %84 = call i32 @test_true(ptr noundef @.str.14, i32 noundef 6529, ptr noundef @.str.158, i32 noundef %83)
  %85 = icmp ne i32 %84, 0
  br i1 %85, label %86, label %91

86:                                               ; preds = %78
  %87 = load ptr, ptr %5, align 8, !tbaa !21
  %88 = call i32 @SSL_do_handshake(ptr noundef %87)
  %89 = call i32 @test_int_eq(ptr noundef @.str.14, i32 noundef 6530, ptr noundef @.str.709, ptr noundef @.str.223, i32 noundef %88, i32 noundef 1)
  %90 = icmp ne i32 %89, 0
  br i1 %90, label %92, label %91

91:                                               ; preds = %86, %78, %70, %62
  br label %100

92:                                               ; preds = %86
  %93 = load i32, ptr %8, align 4, !tbaa !13
  %94 = icmp ne i32 %93, 0
  %95 = zext i1 %94 to i32
  %96 = call i32 @test_true(ptr noundef @.str.14, i32 noundef 6533, ptr noundef @.str.1247, i32 noundef %95)
  %97 = icmp ne i32 %96, 0
  br i1 %97, label %99, label %98

98:                                               ; preds = %92
  br label %100

99:                                               ; preds = %92
  store i32 1, ptr %7, align 4, !tbaa !13
  br label %100

100:                                              ; preds = %99, %98, %91, %60, %49, %35
  %101 = load ptr, ptr %6, align 8, !tbaa !21
  call void @SSL_free(ptr noundef %101)
  %102 = load ptr, ptr %5, align 8, !tbaa !21
  call void @SSL_free(ptr noundef %102)
  %103 = load ptr, ptr %3, align 8, !tbaa !19
  call void @SSL_CTX_free(ptr noundef %103)
  %104 = load ptr, ptr %4, align 8, !tbaa !19
  call void @SSL_CTX_free(ptr noundef %104)
  %105 = load i32, ptr %7, align 4, !tbaa !13
  call void @llvm.lifetime.end.p0(i64 4, ptr %14) #9
  call void @llvm.lifetime.end.p0(i64 8, ptr %13) #9
  call void @llvm.lifetime.end.p0(i64 8, ptr %12) #9
  call void @llvm.lifetime.end.p0(i64 4, ptr %11) #9
  call void @llvm.lifetime.end.p0(i64 4, ptr %10) #9
  call void @llvm.lifetime.end.p0(i64 4, ptr %9) #9
  call void @llvm.lifetime.end.p0(i64 4, ptr %8) #9
  call void @llvm.lifetime.end.p0(i64 4, ptr %7) #9
  call void @llvm.lifetime.end.p0(i64 8, ptr %6) #9
  call void @llvm.lifetime.end.p0(i64 8, ptr %5) #9
  call void @llvm.lifetime.end.p0(i64 8, ptr %4) #9
  call void @llvm.lifetime.end.p0(i64 8, ptr %3) #9
  ret i32 %105
}