; Function Attrs: nounwind uwtable
define internal range(i32 0, 2) i32 @test_serverinfo_custom(i32 noundef %0) #1 {
  %2 = alloca ptr, align 8
  %3 = alloca ptr, align 8
  %4 = alloca ptr, align 8
  %5 = alloca ptr, align 8
  %6 = alloca i32, align 4
  call void @llvm.lifetime.start.p0(i64 8, ptr nonnull %2) #24
  store ptr null, ptr %2, align 8, !tbaa !19
  call void @llvm.lifetime.start.p0(i64 8, ptr nonnull %3) #24
  store ptr null, ptr %3, align 8, !tbaa !19
  call void @llvm.lifetime.start.p0(i64 8, ptr nonnull %4) #24
  store ptr null, ptr %4, align 8, !tbaa !21
  call void @llvm.lifetime.start.p0(i64 8, ptr nonnull %5) #24
  store ptr null, ptr %5, align 8, !tbaa !21
  call void @llvm.lifetime.start.p0(i64 4, ptr nonnull %6) #24
  store i32 0, ptr %6, align 4, !tbaa !14
  %7 = icmp sgt i32 %0, 0
  %8 = icmp ult i32 %0, 4
  br i1 %8, label %switch.lookup, label %14

switch.lookup:                                    ; preds = %1
  %9 = zext nneg i32 %0 to i64
  %switch.gep = getelementptr inbounds nuw [4 x i32], ptr @switch.table.test_serverinfo_custom, i64 0, i64 %9
  %switch.load = load i32, ptr %switch.gep, align 4
  %10 = zext nneg i32 %0 to i64
  %switch.gep23 = getelementptr inbounds nuw [4 x i32], ptr @switch.table.test_serverinfo_custom.19, i64 0, i64 %10
  %switch.load24 = load i32, ptr %switch.gep23, align 4
  %11 = zext nneg i32 %0 to i64
  %switch.gep25 = getelementptr inbounds nuw [4 x i32], ptr @switch.table.test_serverinfo_custom.20, i64 0, i64 %11
  %switch.load26 = load i32, ptr %switch.gep25, align 4
  %12 = zext nneg i32 %0 to i64
  %switch.gep27 = getelementptr inbounds nuw [4 x ptr], ptr @switch.table.test_serverinfo_custom.21, i64 0, i64 %12
  %switch.load28 = load ptr, ptr %switch.gep27, align 8
  %13 = zext nneg i32 %0 to i64
  %switch.gep29 = getelementptr inbounds nuw [4 x i64], ptr @switch.table.test_serverinfo_custom.22, i64 0, i64 %13
  %switch.load30 = load i64, ptr %switch.gep29, align 8
  br label %14

14:                                               ; preds = %switch.lookup, %1
  %.015 = phi i32 [ 0, %1 ], [ %switch.load, %switch.lookup ]
  %.014 = phi i32 [ 0, %1 ], [ %switch.load24, %switch.lookup ]
  %.013 = phi i32 [ 0, %1 ], [ %switch.load26, %switch.lookup ]
  %.012 = phi ptr [ null, %1 ], [ %switch.load28, %switch.lookup ]
  %.011 = phi i64 [ 0, %1 ], [ %switch.load30, %switch.lookup ]
  %15 = load ptr, ptr @libctx, align 8, !tbaa !4
  %16 = tail call ptr @TLS_method() #24
  %17 = tail call ptr @TLS_method() #24
  %18 = load ptr, ptr @cert, align 8, !tbaa !11
  %19 = load ptr, ptr @privkey, align 8, !tbaa !11
  %20 = call i32 @create_ssl_ctx_pair(ptr noundef %15, ptr noundef %16, ptr noundef %17, i32 noundef %.014, i32 noundef %.014, ptr noundef nonnull %2, ptr noundef nonnull %3, ptr noundef %18, ptr noundef %19) #24
  %21 = icmp ne i32 %20, 0
  %22 = zext i1 %21 to i32
  %23 = call i32 @test_true(ptr noundef nonnull @.str.14, i32 noundef 6509, ptr noundef nonnull @.str.1243, i32 noundef %22) #24
  %.not = icmp eq i32 %23, 0
  br i1 %.not, label %65, label %24

24:                                               ; preds = %14
  %25 = load ptr, ptr %2, align 8, !tbaa !19
  br i1 %7, label %26, label %31

26:                                               ; preds = %24
  %27 = call i32 @SSL_CTX_use_serverinfo_ex(ptr noundef %25, i32 noundef %.015, ptr noundef %.012, i64 noundef %.011) #24
  %28 = icmp ne i32 %27, 0
  %29 = zext i1 %28 to i32
  %30 = call i32 @test_true(ptr noundef nonnull @.str.14, i32 noundef 6514, ptr noundef nonnull @.str.1244, i32 noundef %29) #24
  %.not17 = icmp eq i32 %30, 0
  br i1 %.not17, label %65, label %36

31:                                               ; preds = %24
  %32 = call i32 @SSL_CTX_use_serverinfo(ptr noundef %25, ptr noundef %.012, i64 noundef %.011) #24
  %33 = icmp ne i32 %32, 0
  %34 = zext i1 %33 to i32
  %35 = call i32 @test_true(ptr noundef nonnull @.str.14, i32 noundef 6517, ptr noundef nonnull @.str.1245, i32 noundef %34) #24
  %.not16 = icmp eq i32 %35, 0
  br i1 %.not16, label %65, label %36

36:                                               ; preds = %31, %26
  %37 = load ptr, ptr %3, align 8, !tbaa !19
  %38 = call i32 @SSL_CTX_add_custom_ext(ptr noundef %37, i32 noundef 18, i32 noundef %.013, ptr noundef null, ptr noundef null, ptr noundef null, ptr noundef nonnull @serverinfo_custom_parse_cb, ptr noundef nonnull %6) #24
  %39 = icmp ne i32 %38, 0
  %40 = zext i1 %39 to i32
  %41 = call i32 @test_true(ptr noundef nonnull @.str.14, i32 noundef 6525, ptr noundef nonnull @.str.1246, i32 noundef %40) #24
  %.not18 = icmp eq i32 %41, 0
  br i1 %.not18, label %65, label %42

42:                                               ; preds = %36
  %43 = load ptr, ptr %2, align 8, !tbaa !19
  %44 = load ptr, ptr %3, align 8, !tbaa !19
  %45 = call i32 @create_ssl_objects(ptr noundef %43, ptr noundef %44, ptr noundef nonnull %5, ptr noundef nonnull %4, ptr noundef null, ptr noundef null) #24
  %46 = icmp ne i32 %45, 0
  %47 = zext i1 %46 to i32
  %48 = call i32 @test_true(ptr noundef nonnull @.str.14, i32 noundef 6527, ptr noundef nonnull @.str.157, i32 noundef %47) #24
  %.not19 = icmp eq i32 %48, 0
  br i1 %.not19, label %65, label %49

49:                                               ; preds = %42
  %50 = load ptr, ptr %5, align 8, !tbaa !21
  %51 = load ptr, ptr %4, align 8, !tbaa !21
  %52 = call i32 @create_ssl_connection(ptr noundef %50, ptr noundef %51, i32 noundef 0) #24
  %53 = icmp ne i32 %52, 0
  %54 = zext i1 %53 to i32
  %55 = call i32 @test_true(ptr noundef nonnull @.str.14, i32 noundef 6529, ptr noundef nonnull @.str.158, i32 noundef %54) #24
  %.not20 = icmp eq i32 %55, 0
  br i1 %.not20, label %65, label %56

56:                                               ; preds = %49
  %57 = load ptr, ptr %4, align 8, !tbaa !21
  %58 = call i32 @SSL_do_handshake(ptr noundef %57) #24
  %59 = call i32 @test_int_eq(ptr noundef nonnull @.str.14, i32 noundef 6530, ptr noundef nonnull @.str.709, ptr noundef nonnull @.str.223, i32 noundef %58, i32 noundef 1) #24
  %.not21 = icmp eq i32 %59, 0
  br i1 %.not21, label %65, label %60

60:                                               ; preds = %56
  %61 = load i32, ptr %6, align 4, !tbaa !14
  %62 = icmp ne i32 %61, 0
  %63 = zext i1 %62 to i32
  %64 = call i32 @test_true(ptr noundef nonnull @.str.14, i32 noundef 6533, ptr noundef nonnull @.str.1247, i32 noundef %63) #24
  %.not22 = icmp ne i32 %64, 0
  %spec.select = zext i1 %.not22 to i32
  br label %65

65:                                               ; preds = %60, %36, %42, %49, %56, %31, %26, %14
  %.0 = phi i32 [ 0, %56 ], [ 0, %49 ], [ 0, %42 ], [ 0, %36 ], [ 0, %26 ], [ 0, %31 ], [ 0, %14 ], [ %spec.select, %60 ]
  %66 = load ptr, ptr %5, align 8, !tbaa !21
  call void @SSL_free(ptr noundef %66) #24
  %67 = load ptr, ptr %4, align 8, !tbaa !21
  call void @SSL_free(ptr noundef %67) #24
  %68 = load ptr, ptr %2, align 8, !tbaa !19
  call void @SSL_CTX_free(ptr noundef %68) #24
  %69 = load ptr, ptr %3, align 8, !tbaa !19
  call void @SSL_CTX_free(ptr noundef %69) #24
  call void @llvm.lifetime.end.p0(i64 4, ptr nonnull %6) #24
  call void @llvm.lifetime.end.p0(i64 8, ptr nonnull %5) #24
  call void @llvm.lifetime.end.p0(i64 8, ptr nonnull %4) #24
  call void @llvm.lifetime.end.p0(i64 8, ptr nonnull %3) #24
  call void @llvm.lifetime.end.p0(i64 8, ptr nonnull %2) #24
  ret i32 %.0
}